target datalayout = "e-m:e-p270:32:32-p271:32:32-p272:64:64-i64:64-i128:128-f80:128-n8:16:32:64-S128"
target triple = "x86_64-pc-linux-gnu"

%"class.std::__cxx11::basic_string" = type { %"struct.std::__cxx11::basic_string<char>::_Alloc_hider", i64, %union.anon }
%"struct.std::__cxx11::basic_string<char>::_Alloc_hider" = type { ptr }
%union.anon = type { i64, [8 x i8] }
%"class.glslang::TIntermediate" = type { i32, %"class.std::__cxx11::basic_string", %"class.std::__cxx11::basic_string", %"class.std::__cxx11::list", i32, i32, %"struct.glslang::SpvVersion", ptr, %"class.std::set", %"class.glslang::MustBeAssigned", i32, i32, i32, i8, i8, i8, i8, i8, i8, i8, i8, i8, i8, [3 x i32], [3 x i8], [3 x i32], i64, %"class.std::__cxx11::basic_string", %"class.std::__cxx11::basic_string", i32, i32, i32, ptr, ptr, i32, i8, i32, i32, i32, i32, i8, i8, i8, i32, i32, i32, i8, i8, i8, i8, i8, i8, i8, i32, i32, i8, i32, i8, %"class.std::vector.14", i8, i8, i8, i32, i32, i32, i32, i8, i32, %"struct.std::array", %"struct.std::array.19", %"class.std::vector.27", i8, i8, i8, i8, i8, i8, i8, %"class.std::set.32", i32, i8, i8, i8, i8, i8, i8, ptr, ptr, %"class.std::map.40", %"class.std::map.40", %"class.std::unordered_map", i32, i8, i8, %"class.glslang::TNumericFeatures", %"class.std::unordered_map.50", %"class.std::unordered_set", %"class.std::vector.82", [5 x %"class.std::vector.87"], [4 x %"class.std::vector.92"], %"class.std::set.32", %"class.std::__cxx11::basic_string", %"class.std::__cxx11::basic_string", %"class.std::map.97", %"class.glslang::TProcesses" }
%"class.std::__cxx11::list" = type { %"class.std::__cxx11::_List_base" }
%"class.std::__cxx11::_List_base" = type { %"struct.std::__cxx11::_List_base<glslang::TCall, std::allocator<glslang::TCall>>::_List_impl" }
%"struct.std::__cxx11::_List_base<glslang::TCall, std::allocator<glslang::TCall>>::_List_impl" = type { %"struct.std::__detail::_List_node_header" }
%"struct.std::__detail::_List_node_header" = type { %"struct.std::__detail::_List_node_base", i64 }
%"struct.std::__detail::_List_node_base" = type { ptr, ptr }
%"struct.glslang::SpvVersion" = type <{ i32, i32, i32, i32, i8, [3 x i8] }>
%"class.std::set" = type { %"class.std::_Rb_tree" }
%"class.std::_Rb_tree" = type { %"struct.std::_Rb_tree<std::__cxx11::basic_string<char>, std::__cxx11::basic_string<char>, std::_Identity<std::__cxx11::basic_string<char>>, std::less<std::__cxx11::basic_string<char>>>::_Rb_tree_impl" }
%"struct.std::_Rb_tree<std::__cxx11::basic_string<char>, std::__cxx11::basic_string<char>, std::_Identity<std::__cxx11::basic_string<char>>, std::less<std::__cxx11::basic_string<char>>>::_Rb_tree_impl" = type { %"struct.std::_Rb_tree_key_compare", %"struct.std::_Rb_tree_header" }
%"struct.std::_Rb_tree_key_compare" = type { %"struct.std::less" }
%"struct.std::less" = type { i8 }
%"struct.std::_Rb_tree_header" = type { %"struct.std::_Rb_tree_node_base", i64 }
%"struct.std::_Rb_tree_node_base" = type { i32, ptr, ptr, ptr }
%"class.glslang::MustBeAssigned" = type <{ %struct.TBuiltInResource, i8, [3 x i8] }>
%struct.TBuiltInResource = type { i32, i32, i32, i32, i32, i32, i32, i32, i32, i32, i32, i32, i32, i32, i32, i32, i32, i32, i32, i32, i32, i32, i32, i32, i32, i32, i32, i32, i32, i32, i32, i32, i32, i32, i32, i32, i32, i32, i32, i32, i32, i32, i32, i32, i32, i32, i32, i32, i32, i32, i32, i32, i32, i32, i32, i32, i32, i32, i32, i32, i32, i32, i32, i32, i32, i32, i32, i32, i32, i32, i32, i32, i32, i32, i32, i32, i32, i32, i32, i32, i32, i32, i32, i32, i32, i32, i32, i32, i32, i32, i32, i32, i32, i32, i32, i32, i32, i32, i32, i32, i32, i32, %struct.TLimits }
%struct.TLimits = type { i8, i8, i8, i8, i8, i8, i8, i8, i8 }
%"class.std::vector.14" = type { %"struct.std::_Vector_base.15" }
%"struct.std::_Vector_base.15" = type { %"struct.std::_Vector_base<glslang::TXfbBuffer, std::allocator<glslang::TXfbBuffer>>::_Vector_impl" }
%"struct.std::_Vector_base<glslang::TXfbBuffer, std::allocator<glslang::TXfbBuffer>>::_Vector_impl" = type { %"struct.std::_Vector_base<glslang::TXfbBuffer, std::allocator<glslang::TXfbBuffer>>::_Vector_impl_data" }
%"struct.std::_Vector_base<glslang::TXfbBuffer, std::allocator<glslang::TXfbBuffer>>::_Vector_impl_data" = type { ptr, ptr, ptr }
%"struct.std::array" = type { [6 x i32] }
%"struct.std::array.19" = type { [6 x %"class.std::map"] }
%"class.std::map" = type { %"class.std::_Rb_tree.20" }
%"class.std::_Rb_tree.20" = type { %"struct.std::_Rb_tree<int, std::pair<const int, int>, std::_Select1st<std::pair<const int, int>>, std::less<int>>::_Rb_tree_impl" }
%"struct.std::_Rb_tree<int, std::pair<const int, int>, std::_Select1st<std::pair<const int, int>>, std::less<int>>::_Rb_tree_impl" = type { %"struct.std::_Rb_tree_key_compare.24", %"struct.std::_Rb_tree_header" }
%"struct.std::_Rb_tree_key_compare.24" = type { %"struct.std::less.25" }
%"struct.std::less.25" = type { i8 }
%"class.std::vector.27" = type { %"struct.std::_Vector_base.28" }
%"struct.std::_Vector_base.28" = type { %"struct.std::_Vector_base<std::__cxx11::basic_string<char>, std::allocator<std::__cxx11::basic_string<char>>>::_Vector_impl" }
%"struct.std::_Vector_base<std::__cxx11::basic_string<char>, std::allocator<std::__cxx11::basic_string<char>>>::_Vector_impl" = type { %"struct.std::_Vector_base<std::__cxx11::basic_string<char>, std::allocator<std::__cxx11::basic_string<char>>>::_Vector_impl_data" }
%"struct.std::_Vector_base<std::__cxx11::basic_string<char>, std::allocator<std::__cxx11::basic_string<char>>>::_Vector_impl_data" = type { ptr, ptr, ptr }
%"class.std::map.40" = type { %"class.std::_Rb_tree.41" }
%"class.std::_Rb_tree.41" = type { %"struct.std::_Rb_tree<std::__cxx11::basic_string<char, std::char_traits<char>, glslang::pool_allocator<char>>, std::pair<const std::__cxx11::basic_string<char, std::char_traits<char>, glslang::pool_allocator<char>>, glslang::AstRefType>, std::_Select1st<std::pair<const std::__cxx11::basic_string<char, std::char_traits<char>, glslang::pool_allocator<char>>, glslang::AstRefType>>, std::less<std::__cxx11::basic_string<char, std::char_traits<char>, glslang::pool_allocator<char>>>>::_Rb_tree_impl" }
%"struct.std::_Rb_tree<std::__cxx11::basic_string<char, std::char_traits<char>, glslang::pool_allocator<char>>, std::pair<const std::__cxx11::basic_string<char, std::char_traits<char>, glslang::pool_allocator<char>>, glslang::AstRefType>, std::_Select1st<std::pair<const std::__cxx11::basic_string<char, std::char_traits<char>, glslang::pool_allocator<char>>, glslang::AstRefType>>, std::less<std::__cxx11::basic_string<char, std::char_traits<char>, glslang::pool_allocator<char>>>>::_Rb_tree_impl" = type { %"struct.std::_Rb_tree_key_compare.37", %"struct.std::_Rb_tree_header" }
%"struct.std::_Rb_tree_key_compare.37" = type { %"struct.std::less.38" }
%"struct.std::less.38" = type { i8 }
%"class.std::unordered_map" = type { %"class.std::_Hashtable" }
%"class.std::_Hashtable" = type { ptr, i64, %"struct.std::__detail::_Hash_node_base", i64, %"struct.std::__detail::_Prime_rehash_policy", ptr }
%"struct.std::__detail::_Hash_node_base" = type { ptr }
%"struct.std::__detail::_Prime_rehash_policy" = type { float, i64 }
%"class.glslang::TNumericFeatures" = type { i32 }
%"class.std::unordered_map.50" = type { %"class.std::_Hashtable.51" }
%"class.std::_Hashtable.51" = type { ptr, i64, %"struct.std::__detail::_Hash_node_base", i64, %"struct.std::__detail::_Prime_rehash_policy", ptr }
%"class.std::unordered_set" = type { %"class.std::_Hashtable.64" }
%"class.std::_Hashtable.64" = type { ptr, i64, %"struct.std::__detail::_Hash_node_base", i64, %"struct.std::__detail::_Prime_rehash_policy", ptr }
%"class.std::vector.82" = type { %"struct.std::_Vector_base.83" }
%"struct.std::_Vector_base.83" = type { %"struct.std::_Vector_base<glslang::TOffsetRange, std::allocator<glslang::TOffsetRange>>::_Vector_impl" }
%"struct.std::_Vector_base<glslang::TOffsetRange, std::allocator<glslang::TOffsetRange>>::_Vector_impl" = type { %"struct.std::_Vector_base<glslang::TOffsetRange, std::allocator<glslang::TOffsetRange>>::_Vector_impl_data" }
%"struct.std::_Vector_base<glslang::TOffsetRange, std::allocator<glslang::TOffsetRange>>::_Vector_impl_data" = type { ptr, ptr, ptr }
%"class.std::vector.87" = type { %"struct.std::_Vector_base.88" }
%"struct.std::_Vector_base.88" = type { %"struct.std::_Vector_base<glslang::TIoRange, std::allocator<glslang::TIoRange>>::_Vector_impl" }
%"struct.std::_Vector_base<glslang::TIoRange, std::allocator<glslang::TIoRange>>::_Vector_impl" = type { %"struct.std::_Vector_base<glslang::TIoRange, std::allocator<glslang::TIoRange>>::_Vector_impl_data" }
%"struct.std::_Vector_base<glslang::TIoRange, std::allocator<glslang::TIoRange>>::_Vector_impl_data" = type { ptr, ptr, ptr }
%"class.std::vector.92" = type { %"struct.std::_Vector_base.93" }
%"struct.std::_Vector_base.93" = type { %"struct.std::_Vector_base<glslang::TRange, std::allocator<glslang::TRange>>::_Vector_impl" }
%"struct.std::_Vector_base<glslang::TRange, std::allocator<glslang::TRange>>::_Vector_impl" = type { %"struct.std::_Vector_base<glslang::TRange, std::allocator<glslang::TRange>>::_Vector_impl_data" }
%"struct.std::_Vector_base<glslang::TRange, std::allocator<glslang::TRange>>::_Vector_impl_data" = type { ptr, ptr, ptr }
%"class.std::set.32" = type { %"class.std::_Rb_tree.33" }
%"class.std::_Rb_tree.33" = type { %"struct.std::_Rb_tree<std::__cxx11::basic_string<char, std::char_traits<char>, glslang::pool_allocator<char>>, std::__cxx11::basic_string<char, std::char_traits<char>, glslang::pool_allocator<char>>, std::_Identity<std::__cxx11::basic_string<char, std::char_traits<char>, glslang::pool_allocator<char>>>, std::less<std::__cxx11::basic_string<char, std::char_traits<char>, glslang::pool_allocator<char>>>>::_Rb_tree_impl" }
%"struct.std::_Rb_tree<std::__cxx11::basic_string<char, std::char_traits<char>, glslang::pool_allocator<char>>, std::__cxx11::basic_string<char, std::char_traits<char>, glslang::pool_allocator<char>>, std::_Identity<std::__cxx11::basic_string<char, std::char_traits<char>, glslang::pool_allocator<char>>>, std::less<std::__cxx11::basic_string<char, std::char_traits<char>, glslang::pool_allocator<char>>>>::_Rb_tree_impl" = type { %"struct.std::_Rb_tree_key_compare.37", %"struct.std::_Rb_tree_header" }
%"class.std::map.97" = type { %"class.std::_Rb_tree.98" }
%"class.std::_Rb_tree.98" = type { %"struct.std::_Rb_tree<std::__cxx11::basic_string<char>, std::pair<const std::__cxx11::basic_string<char>, std::__cxx11::basic_string<char>>, std::_Select1st<std::pair<const std::__cxx11::basic_string<char>, std::__cxx11::basic_string<char>>>, std::less<std::__cxx11::basic_string<char>>>::_Rb_tree_impl" }
%"struct.std::_Rb_tree<std::__cxx11::basic_string<char>, std::pair<const std::__cxx11::basic_string<char>, std::__cxx11::basic_string<char>>, std::_Select1st<std::pair<const std::__cxx11::basic_string<char>, std::__cxx11::basic_string<char>>>, std::less<std::__cxx11::basic_string<char>>>::_Rb_tree_impl" = type { %"struct.std::_Rb_tree_key_compare", %"struct.std::_Rb_tree_header" }
%"class.glslang::TProcesses" = type { %"class.std::vector.27" }
%"class.glslang::TShader" = type <{ ptr, ptr, i32, [4 x i8], ptr, ptr, ptr, ptr, ptr, ptr, i32, [4 x i8], ptr, %"class.std::__cxx11::basic_string", i32, %"struct.glslang::TEnvironment", i8, [3 x i8] }>
%"struct.glslang::TEnvironment" = type { %"struct.glslang::TInputLanguage", %"struct.glslang::TClient", %"struct.glslang::TTarget" }
%"struct.glslang::TInputLanguage" = type { i32, i32, i32, i32, i8 }
%"struct.glslang::TClient" = type { i32, i32 }
%"struct.glslang::TTarget" = type { i32, i32, i8 }

@.str.72 = private unnamed_addr constant [11 x i8] c"hlsl-iomap\00", align 1

; Function Attrs: mustprogress nounwind uwtable
define linkonce_odr void @_ZN7glslang13TIntermediate16setHlslIoMappingEb(ptr noundef nonnull align 8 dereferenceable(2024) %0, i1 noundef zeroext %1) #4 comdat align 2 {
  %3 = alloca ptr, align 8
  %4 = alloca i8, align 1
  store ptr %0, ptr %3, align 8
  %5 = zext i1 %1 to i8
  store i8 %5, ptr %4, align 1
  %6 = load ptr, ptr %3, align 8
  %7 = load i8, ptr %4, align 1
  %8 = trunc i8 %7 to i1
  %9 = getelementptr inbounds %"class.glslang::TIntermediate", ptr %6, i32 0, i32 76
  %10 = zext i1 %8 to i8
  store i8 %10, ptr %9, align 1
  %11 = getelementptr inbounds %"class.glslang::TIntermediate", ptr %6, i32 0, i32 76
  %12 = load i8, ptr %11, align 1
  %13 = trunc i8 %12 to i1
  br i1 %13, label %14, label %16

14:                                               ; preds = %2
  %15 = getelementptr inbounds %"class.glslang::TIntermediate", ptr %6, i32 0, i32 104
  call void @_ZN7glslang10TProcesses10addProcessEPKc(ptr noundef nonnull align 8 dereferenceable(24) %15, ptr noundef @.str.72)
  br label %16

16:                                               ; preds = %14, %2
  ret void
}

; Function Attrs: mustprogress nounwind uwtable
define void @_ZN7glslang7TShader16setHlslIoMappingEb(ptr noundef nonnull align 8 dereferenceable(165) %0, i1 noundef zeroext %1) #4 align 2 {
  %3 = alloca ptr, align 8
  %4 = alloca i8, align 1
  store ptr %0, ptr %3, align 8
  %5 = zext i1 %1 to i8
  store i8 %5, ptr %4, align 1
  %6 = load ptr, ptr %3, align 8
  %7 = getelementptr inbounds %"class.glslang::TShader", ptr %6, i32 0, i32 5
  %8 = load ptr, ptr %7, align 8
  %9 = load i8, ptr %4, align 1
  %10 = trunc i8 %9 to i1
  call void @_ZN7glslang13TIntermediate16setHlslIoMappingEb(ptr noundef nonnull align 8 dereferenceable(2024) %8, i1 noundef zeroext %10)
  ret void
}